target datalayout = "e-m:e-p270:32:32-p271:32:32-p272:64:64-i64:64-i128:128-f80:128-n8:16:32:64-S128"
target triple = "x86_64-unknown-linux-gnu"

%struct.Bigint = type { ptr, i32, i32, i32, i32, [1 x i32] }
%union.U = type { double }

; Function Attrs: nounwind uwtable
define internal i32 @hi0bits(i32 noundef %x) #0 {
entry:
  %retval = alloca i32, align 4
  %x.addr = alloca i32, align 4
  %k = alloca i32, align 4
  store i32 %x, ptr %x.addr, align 4
  store i32 0, ptr %k, align 4
  %0 = load i32, ptr %x.addr, align 4
  %and = and i32 %0, -65536
  %tobool = icmp ne i32 %and, 0
  br i1 %tobool, label %if.end, label %if.then

if.then:                                          ; preds = %entry
  store i32 16, ptr %k, align 4
  %1 = load i32, ptr %x.addr, align 4
  %shl = shl i32 %1, 16
  store i32 %shl, ptr %x.addr, align 4
  br label %if.end

if.end:                                           ; preds = %if.then, %entry
  %2 = load i32, ptr %x.addr, align 4
  %and1 = and i32 %2, -16777216
  %tobool2 = icmp ne i32 %and1, 0
  br i1 %tobool2, label %if.end5, label %if.then3

if.then3:                                         ; preds = %if.end
  %3 = load i32, ptr %k, align 4
  %add = add nsw i32 %3, 8
  store i32 %add, ptr %k, align 4
  %4 = load i32, ptr %x.addr, align 4
  %shl4 = shl i32 %4, 8
  store i32 %shl4, ptr %x.addr, align 4
  br label %if.end5

if.end5:                                          ; preds = %if.then3, %if.end
  %5 = load i32, ptr %x.addr, align 4
  %and6 = and i32 %5, -268435456
  %tobool7 = icmp ne i32 %and6, 0
  br i1 %tobool7, label %if.end11, label %if.then8

if.then8:                                         ; preds = %if.end5
  %6 = load i32, ptr %k, align 4
  %add9 = add nsw i32 %6, 4
  store i32 %add9, ptr %k, align 4
  %7 = load i32, ptr %x.addr, align 4
  %shl10 = shl i32 %7, 4
  store i32 %shl10, ptr %x.addr, align 4
  br label %if.end11

if.end11:                                         ; preds = %if.then8, %if.end5
  %8 = load i32, ptr %x.addr, align 4
  %and12 = and i32 %8, -1073741824
  %tobool13 = icmp ne i32 %and12, 0
  br i1 %tobool13, label %if.end17, label %if.then14

if.then14:                                        ; preds = %if.end11
  %9 = load i32, ptr %k, align 4
  %add15 = add nsw i32 %9, 2
  store i32 %add15, ptr %k, align 4
  %10 = load i32, ptr %x.addr, align 4
  %shl16 = shl i32 %10, 2
  store i32 %shl16, ptr %x.addr, align 4
  br label %if.end17

if.end17:                                         ; preds = %if.then14, %if.end11
  %11 = load i32, ptr %x.addr, align 4
  %and18 = and i32 %11, -2147483648
  %tobool19 = icmp ne i32 %and18, 0
  br i1 %tobool19, label %if.end25, label %if.then20

if.then20:                                        ; preds = %if.end17
  %12 = load i32, ptr %k, align 4
  %inc = add nsw i32 %12, 1
  store i32 %inc, ptr %k, align 4
  %13 = load i32, ptr %x.addr, align 4
  %and21 = and i32 %13, 1073741824
  %tobool22 = icmp ne i32 %and21, 0
  br i1 %tobool22, label %if.end24, label %if.then23

if.then23:                                        ; preds = %if.then20
  store i32 32, ptr %retval, align 4
  br label %return

if.end24:                                         ; preds = %if.then20
  br label %if.end25

if.end25:                                         ; preds = %if.end24, %if.end17
  %14 = load i32, ptr %k, align 4
  store i32 %14, ptr %retval, align 4
  br label %return

return:                                           ; preds = %if.end25, %if.then23
  %15 = load i32, ptr %retval, align 4
  ret i32 %15
}

; Function Attrs: nounwind uwtable
define internal double @b2d(ptr noundef %a, ptr noundef %e) #0 {
entry:
  %a.addr = alloca ptr, align 8
  %e.addr = alloca ptr, align 8
  %xa = alloca ptr, align 8
  %xa0 = alloca ptr, align 8
  %w = alloca i32, align 4
  %y = alloca i32, align 4
  %z = alloca i32, align 4
  %k = alloca i32, align 4
  %d = alloca %union.U, align 8
  store ptr %a, ptr %a.addr, align 8
  store ptr %e, ptr %e.addr, align 8
  %0 = load ptr, ptr %a.addr, align 8
  %x = getelementptr inbounds %struct.Bigint, ptr %0, i32 0, i32 5
  %arraydecay = getelementptr inbounds [1 x i32], ptr %x, i64 0, i64 0
  store ptr %arraydecay, ptr %xa0, align 8
  %1 = load ptr, ptr %xa0, align 8
  %2 = load ptr, ptr %a.addr, align 8
  %wds = getelementptr inbounds %struct.Bigint, ptr %2, i32 0, i32 4
  %3 = load i32, ptr %wds, align 4
  %idx.ext = sext i32 %3 to i64
  %add.ptr = getelementptr inbounds i32, ptr %1, i64 %idx.ext
  store ptr %add.ptr, ptr %xa, align 8
  %4 = load ptr, ptr %xa, align 8
  %incdec.ptr = getelementptr inbounds i32, ptr %4, i32 -1
  store ptr %incdec.ptr, ptr %xa, align 8
  %5 = load i32, ptr %incdec.ptr, align 4
  store i32 %5, ptr %y, align 4
  %6 = load i32, ptr %y, align 4
  %call = call i32 @hi0bits(i32 noundef %6)
  store i32 %call, ptr %k, align 4
  %7 = load i32, ptr %k, align 4
  %sub = sub nsw i32 32, %7
  %8 = load ptr, ptr %e.addr, align 8
  store i32 %sub, ptr %8, align 4
  %9 = load i32, ptr %k, align 4
  %cmp = icmp slt i32 %9, 11
  br i1 %cmp, label %if.then, label %if.end

if.then:                                          ; preds = %entry
  %10 = load i32, ptr %y, align 4
  %11 = load i32, ptr %k, align 4
  %sub1 = sub nsw i32 11, %11
  %shr = lshr i32 %10, %sub1
  %or = or i32 1072693248, %shr
  %arrayidx = getelementptr inbounds [2 x i32], ptr %d, i64 0, i64 1
  store i32 %or, ptr %arrayidx, align 4
  %12 = load ptr, ptr %xa, align 8
  %13 = load ptr, ptr %xa0, align 8
  %cmp2 = icmp ugt ptr %12, %13
  br i1 %cmp2, label %cond.true, label %cond.false

cond.true:                                        ; preds = %if.then
  %14 = load ptr, ptr %xa, align 8
  %incdec.ptr3 = getelementptr inbounds i32, ptr %14, i32 -1
  store ptr %incdec.ptr3, ptr %xa, align 8
  %15 = load i32, ptr %incdec.ptr3, align 4
  br label %cond.end

cond.false:                                       ; preds = %if.then
  br label %cond.end

cond.end:                                         ; preds = %cond.false, %cond.true
  %cond = phi i32 [ %15, %cond.true ], [ 0, %cond.false ]
  store i32 %cond, ptr %w, align 4
  %16 = load i32, ptr %y, align 4
  %17 = load i32, ptr %k, align 4
  %add = add nsw i32 21, %17
  %shl = shl i32 %16, %add
  %18 = load i32, ptr %w, align 4
  %19 = load i32, ptr %k, align 4
  %sub4 = sub nsw i32 11, %19
  %shr5 = lshr i32 %18, %sub4
  %or6 = or i32 %shl, %shr5
  %arrayidx7 = getelementptr inbounds [2 x i32], ptr %d, i64 0, i64 0
  store i32 %or6, ptr %arrayidx7, align 8
  br label %ret_d

if.end:                                           ; preds = %entry
  %20 = load ptr, ptr %xa, align 8
  %21 = load ptr, ptr %xa0, align 8
  %cmp8 = icmp ugt ptr %20, %21
  br i1 %cmp8, label %cond.true9, label %cond.false11

cond.true9:                                       ; preds = %if.end
  %22 = load ptr, ptr %xa, align 8
  %incdec.ptr10 = getelementptr inbounds i32, ptr %22, i32 -1
  store ptr %incdec.ptr10, ptr %xa, align 8
  %23 = load i32, ptr %incdec.ptr10, align 4
  br label %cond.end12

cond.false11:                                     ; preds = %if.end
  br label %cond.end12

cond.end12:                                       ; preds = %cond.false11, %cond.true9
  %cond13 = phi i32 [ %23, %cond.true9 ], [ 0, %cond.false11 ]
  store i32 %cond13, ptr %z, align 4
  %24 = load i32, ptr %k, align 4
  %sub14 = sub nsw i32 %24, 11
  store i32 %sub14, ptr %k, align 4
  %tobool = icmp ne i32 %sub14, 0
  br i1 %tobool, label %if.then15, label %if.else

if.then15:                                        ; preds = %cond.end12
  %25 = load i32, ptr %y, align 4
  %26 = load i32, ptr %k, align 4
  %shl16 = shl i32 %25, %26
  %or17 = or i32 1072693248, %shl16
  %27 = load i32, ptr %z, align 4
  %28 = load i32, ptr %k, align 4
  %sub18 = sub nsw i32 32, %28
  %shr19 = lshr i32 %27, %sub18
  %or20 = or i32 %or17, %shr19
  %arrayidx21 = getelementptr inbounds [2 x i32], ptr %d, i64 0, i64 1
  store i32 %or20, ptr %arrayidx21, align 4
  %29 = load ptr, ptr %xa, align 8
  %30 = load ptr, ptr %xa0, align 8
  %cmp22 = icmp ugt ptr %29, %30
  br i1 %cmp22, label %cond.true23, label %cond.false25

cond.true23:                                      ; preds = %if.then15
  %31 = load ptr, ptr %xa, align 8
  %incdec.ptr24 = getelementptr inbounds i32, ptr %31, i32 -1
  store ptr %incdec.ptr24, ptr %xa, align 8
  %32 = load i32, ptr %incdec.ptr24, align 4
  br label %cond.end26

cond.false25:                                     ; preds = %if.then15
  br label %cond.end26

cond.end26:                                       ; preds = %cond.false25, %cond.true23
  %cond27 = phi i32 [ %32, %cond.true23 ], [ 0, %cond.false25 ]
  store i32 %cond27, ptr %y, align 4
  %33 = load i32, ptr %z, align 4
  %34 = load i32, ptr %k, align 4
  %shl28 = shl i32 %33, %34
  %35 = load i32, ptr %y, align 4
  %36 = load i32, ptr %k, align 4
  %sub29 = sub nsw i32 32, %36
  %shr30 = lshr i32 %35, %sub29
  %or31 = or i32 %shl28, %shr30
  %arrayidx32 = getelementptr inbounds [2 x i32], ptr %d, i64 0, i64 0
  store i32 %or31, ptr %arrayidx32, align 8
  br label %if.end36

if.else:                                          ; preds = %cond.end12
  %37 = load i32, ptr %y, align 4
  %or33 = or i32 1072693248, %37
  %arrayidx34 = getelementptr inbounds [2 x i32], ptr %d, i64 0, i64 1
  store i32 %or33, ptr %arrayidx34, align 4
  %38 = load i32, ptr %z, align 4
  %arrayidx35 = getelementptr inbounds [2 x i32], ptr %d, i64 0, i64 0
  store i32 %38, ptr %arrayidx35, align 8
  br label %if.end36

if.end36:                                         ; preds = %if.else, %cond.end26
  br label %ret_d

ret_d:                                            ; preds = %if.end36, %cond.end
  %39 = load double, ptr %d, align 8
  ret double %39
}